; Function Attrs: nounwind uwtable
define internal fastcc zeroext i1 @_equalFieldSelect(ptr noundef nonnull readonly captures(none) %0, ptr noundef nonnull readonly captures(none) %1) unnamed_addr #0 {
  %3 = getelementptr inbounds nuw i8, ptr %0, i64 8
  %4 = load ptr, ptr %3, align 8
  %5 = getelementptr inbounds nuw i8, ptr %1, i64 8
  %6 = load ptr, ptr %5, align 8
  %7 = tail call zeroext i1 @equal(ptr noundef %4, ptr noundef %6)
  br i1 %7, label %8, label %28

8:                                                ; preds = %2
  %9 = getelementptr inbounds nuw i8, ptr %0, i64 16
  %10 = load i16, ptr %9, align 8
  %11 = getelementptr inbounds nuw i8, ptr %1, i64 16
  %12 = load i16, ptr %11, align 8
  %.not = icmp eq i16 %10, %12
  br i1 %.not, label %13, label %28

13:                                               ; preds = %8
  %14 = getelementptr inbounds nuw i8, ptr %0, i64 20
  %15 = load i32, ptr %14, align 4
  %16 = getelementptr inbounds nuw i8, ptr %1, i64 20
  %17 = load i32, ptr %16, align 4
  %.not11 = icmp eq i32 %15, %17
  br i1 %.not11, label %18, label %28

18:                                               ; preds = %13
  %19 = getelementptr inbounds nuw i8, ptr %0, i64 24
  %20 = load i32, ptr %19, align 8
  %21 = getelementptr inbounds nuw i8, ptr %1, i64 24
  %22 = load i32, ptr %21, align 8
  %.not12 = icmp eq i32 %20, %22
  br i1 %.not12, label %23, label %28

23:                                               ; preds = %18
  %24 = getelementptr inbounds nuw i8, ptr %0, i64 28
  %25 = load i32, ptr %24, align 4
  %26 = getelementptr inbounds nuw i8, ptr %1, i64 28
  %27 = load i32, ptr %26, align 4
  %.not13 = icmp eq i32 %25, %27
  br label %28

28:                                               ; preds = %23, %18, %13, %8, %2
  %.0 = phi i1 [ false, %2 ], [ false, %8 ], [ false, %13 ], [ false, %18 ], [ %.not13, %23 ]
  ret i1 %.0
}